target datalayout = "e-m:e-p270:32:32-p271:32:32-p272:64:64-i64:64-i128:128-f80:128-n8:16:32:64-S128"
target triple = "x86_64-pc-linux-gnu"

%struct.quic_obj_st = type { %struct.ssl_st, ptr, ptr, ptr, ptr, ptr, i64, i8 }
%struct.ssl_st = type { i32, ptr, ptr, ptr, %struct.CRYPTO_REF_COUNT, ptr, %struct.crypto_ex_data_st }
%struct.CRYPTO_REF_COUNT = type { i32 }
%struct.crypto_ex_data_st = type { ptr, ptr }
%struct.OSSL_TIME = type { i64 }
%struct.srp_ctx_st = type { ptr, ptr, ptr, ptr, ptr, ptr, ptr, ptr, ptr, ptr, ptr, ptr, ptr, ptr, i32, i64 }
%struct.ssl_ctx_st = type { ptr, ptr, ptr, ptr, ptr, ptr, ptr, i64, ptr, ptr, i32, %struct.OSSL_TIME, ptr, ptr, ptr, %struct.anon.3, %struct.CRYPTO_REF_COUNT, ptr, ptr, ptr, ptr, ptr, ptr, ptr, ptr, ptr, %struct.crypto_ex_data_st, ptr, ptr, ptr, ptr, ptr, ptr, ptr, i64, i32, i32, i32, i64, ptr, ptr, i32, ptr, ptr, i32, i64, [32 x i8], ptr, ptr, ptr, i32, ptr, ptr, ptr, i64, i64, i64, i64, ptr, ptr, ptr, ptr, ptr, %struct.anon.4, ptr, ptr, ptr, ptr, %struct.srp_ctx_st, %struct.dane_ctx_st, ptr, ptr, ptr, ptr, i32, i32, ptr, ptr, i64, i64, ptr, ptr, ptr, i64, ptr, ptr, i32, ptr, ptr, ptr, [14 x i32], [24 x ptr], [14 x ptr], [14 x i64], i64, ptr, ptr, ptr, i64, i64, ptr, i64, i64, i32, i32, i32, i32, ptr, i64, ptr, i64, i64, ptr, ptr }
%struct.anon.3 = type { i32, i32, i32, i32, i32, i32, i32, i32, i32, i32, i32 }
%struct.anon.4 = type { ptr, ptr, [16 x i8], ptr, ptr, ptr, ptr, ptr, i32, i8, i64, ptr, i64, ptr, i64, ptr, i64, ptr, ptr, i64, ptr, ptr, ptr, i64, ptr, ptr, ptr, ptr, [32 x i8] }
%struct.dane_ctx_st = type { ptr, ptr, i8, i64 }
%struct.quic_engine_args_st = type { ptr, ptr, ptr, i64 }
%struct.quic_domain_st = type { %struct.quic_obj_st, ptr, ptr }

@.str = private unnamed_addr constant [32 x i8] c"../openssl/ssl/quic/quic_impl.c\00", align 1
@__func__.ossl_quic_new_domain = private unnamed_addr constant [21 x i8] c"ossl_quic_new_domain\00", align 1

; Function Attrs: inlinehint nounwind uwtable
define internal void @ossl_quic_obj_set_domain_flags(ptr noundef %0, i64 noundef %1) #3 {
  %3 = alloca ptr, align 8
  %4 = alloca i64, align 8
  store ptr %0, ptr %3, align 8, !tbaa !172
  store i64 %1, ptr %4, align 8, !tbaa !169
  %5 = load i64, ptr %4, align 8, !tbaa !169
  %6 = load ptr, ptr %3, align 8, !tbaa !172
  %7 = getelementptr inbounds nuw %struct.quic_obj_st, ptr %6, i32 0, i32 6
  store i64 %5, ptr %7, align 8, !tbaa !232
  ret void
}

; Function Attrs: nounwind uwtable
define internal i32 @need_notifier_for_domain_flags(i64 noundef %0) #0 {
  %2 = alloca i64, align 8
  store i64 %0, ptr %2, align 8, !tbaa !169
  %3 = load i64, ptr %2, align 8, !tbaa !169
  %4 = and i64 %3, 4
  %5 = icmp ne i64 %4, 0
  br i1 %5, label %16, label %6

6:                                                ; preds = %1
  %7 = load i64, ptr %2, align 8, !tbaa !169
  %8 = and i64 %7, 2
  %9 = icmp ne i64 %8, 0
  br i1 %9, label %10, label %14

10:                                               ; preds = %6
  %11 = load i64, ptr %2, align 8, !tbaa !169
  %12 = and i64 %11, 8
  %13 = icmp ne i64 %12, 0
  br label %14

14:                                               ; preds = %10, %6
  %15 = phi i1 [ false, %6 ], [ %13, %10 ]
  br label %16

16:                                               ; preds = %14, %1
  %17 = phi i1 [ true, %1 ], [ %15, %14 ]
  %18 = zext i1 %17 to i32
  ret i32 %18
}

; Function Attrs: nounwind uwtable
define ptr @ossl_quic_new_domain(ptr noundef %0, i64 noundef %1) #0 {
  %3 = alloca ptr, align 8
  %4 = alloca ptr, align 8
  %5 = alloca i64, align 8
  %6 = alloca ptr, align 8
  %7 = alloca %struct.quic_engine_args_st, align 8
  %8 = alloca i64, align 8
  %9 = alloca i32, align 4
  store ptr %0, ptr %4, align 8, !tbaa !3
  store i64 %1, ptr %5, align 8, !tbaa !169
  call void @llvm.lifetime.start.p0(i64 8, ptr %6) #10
  store ptr null, ptr %6, align 8, !tbaa !291
  call void @llvm.lifetime.start.p0(i64 32, ptr %7) #10
  call void @llvm.memset.p0.i64(ptr align 8 %7, i8 0, i64 32, i1 false)
  call void @llvm.lifetime.start.p0(i64 8, ptr %8) #10
  %10 = load ptr, ptr %4, align 8, !tbaa !3
  %11 = getelementptr inbounds nuw %struct.ssl_ctx_st, ptr %10, i32 0, i32 111
  %12 = load i64, ptr %11, align 8, !tbaa !91
  store i64 %12, ptr %8, align 8, !tbaa !169
  %13 = load i64, ptr %5, align 8, !tbaa !169
  %14 = and i64 %13, 7
  %15 = icmp ne i64 %14, 0
  br i1 %15, label %16, label %18

16:                                               ; preds = %2
  %17 = load i64, ptr %5, align 8, !tbaa !169
  store i64 %17, ptr %8, align 8, !tbaa !169
  br label %24

18:                                               ; preds = %2
  %19 = load ptr, ptr %4, align 8, !tbaa !3
  %20 = getelementptr inbounds nuw %struct.ssl_ctx_st, ptr %19, i32 0, i32 111
  %21 = load i64, ptr %20, align 8, !tbaa !91
  %22 = load i64, ptr %5, align 8, !tbaa !169
  %23 = or i64 %21, %22
  store i64 %23, ptr %8, align 8, !tbaa !169
  br label %24

24:                                               ; preds = %18, %16
  %25 = load i64, ptr %8, align 8, !tbaa !169
  %26 = call i32 @ossl_adjust_domain_flags(i64 noundef %25, ptr noundef %8)
  %27 = icmp ne i32 %26, 0
  br i1 %27, label %29, label %28

28:                                               ; preds = %24
  store ptr null, ptr %3, align 8
  store i32 1, ptr %9, align 4
  br label %92

29:                                               ; preds = %24
  %30 = call noalias ptr @CRYPTO_zalloc(i64 noundef 136, ptr noundef @.str, i32 noundef 4913)
  store ptr %30, ptr %6, align 8, !tbaa !291
  %31 = icmp eq ptr %30, null
  br i1 %31, label %32, label %34

32:                                               ; preds = %29
  %33 = call i32 (ptr, ptr, i32, ptr, i32, ptr, ...) @quic_raise_non_normal_error(ptr noundef null, ptr noundef @.str, i32 noundef 4914, ptr noundef @__func__.ossl_quic_new_domain, i32 noundef 524303, ptr noundef null)
  store ptr null, ptr %3, align 8
  store i32 1, ptr %9, align 4
  br label %92

34:                                               ; preds = %29
  %35 = call ptr @ossl_crypto_mutex_new()
  %36 = load ptr, ptr %6, align 8, !tbaa !291
  %37 = getelementptr inbounds nuw %struct.quic_domain_st, ptr %36, i32 0, i32 2
  store ptr %35, ptr %37, align 8, !tbaa !268
  %38 = icmp eq ptr %35, null
  br i1 %38, label %39, label %41

39:                                               ; preds = %34
  %40 = call i32 (ptr, ptr, i32, ptr, i32, ptr, ...) @quic_raise_non_normal_error(ptr noundef null, ptr noundef @.str, i32 noundef 4920, ptr noundef @__func__.ossl_quic_new_domain, i32 noundef 524303, ptr noundef null)
  br label %85

41:                                               ; preds = %34
  %42 = load ptr, ptr %4, align 8, !tbaa !3
  %43 = getelementptr inbounds nuw %struct.ssl_ctx_st, ptr %42, i32 0, i32 0
  %44 = load ptr, ptr %43, align 8, !tbaa !125
  %45 = getelementptr inbounds nuw %struct.quic_engine_args_st, ptr %7, i32 0, i32 0
  store ptr %44, ptr %45, align 8, !tbaa !126
  %46 = load ptr, ptr %4, align 8, !tbaa !3
  %47 = getelementptr inbounds nuw %struct.ssl_ctx_st, ptr %46, i32 0, i32 89
  %48 = load ptr, ptr %47, align 8, !tbaa !128
  %49 = getelementptr inbounds nuw %struct.quic_engine_args_st, ptr %7, i32 0, i32 1
  store ptr %48, ptr %49, align 8, !tbaa !129
  %50 = load ptr, ptr %6, align 8, !tbaa !291
  %51 = getelementptr inbounds nuw %struct.quic_domain_st, ptr %50, i32 0, i32 2
  %52 = load ptr, ptr %51, align 8, !tbaa !268
  %53 = getelementptr inbounds nuw %struct.quic_engine_args_st, ptr %7, i32 0, i32 2
  store ptr %52, ptr %53, align 8, !tbaa !130
  %54 = load i64, ptr %8, align 8, !tbaa !169
  %55 = call i32 @need_notifier_for_domain_flags(i64 noundef %54)
  %56 = icmp ne i32 %55, 0
  br i1 %56, label %57, label %61

57:                                               ; preds = %41
  %58 = getelementptr inbounds nuw %struct.quic_engine_args_st, ptr %7, i32 0, i32 3
  %59 = load i64, ptr %58, align 8, !tbaa !131
  %60 = or i64 %59, 1
  store i64 %60, ptr %58, align 8, !tbaa !131
  br label %61

61:                                               ; preds = %57, %41
  %62 = call ptr @ossl_quic_engine_new(ptr noundef %7)
  %63 = load ptr, ptr %6, align 8, !tbaa !291
  %64 = getelementptr inbounds nuw %struct.quic_domain_st, ptr %63, i32 0, i32 1
  store ptr %62, ptr %64, align 8, !tbaa !159
  %65 = icmp eq ptr %62, null
  br i1 %65, label %66, label %68

66:                                               ; preds = %61
  %67 = call i32 (ptr, ptr, i32, ptr, i32, ptr, ...) @quic_raise_non_normal_error(ptr noundef null, ptr noundef @.str, i32 noundef 4935, ptr noundef @__func__.ossl_quic_new_domain, i32 noundef 786691, ptr noundef null)
  br label %85

68:                                               ; preds = %61
  %69 = load ptr, ptr %6, align 8, !tbaa !291
  %70 = getelementptr inbounds nuw %struct.quic_domain_st, ptr %69, i32 0, i32 0
  %71 = load ptr, ptr %4, align 8, !tbaa !3
  %72 = load ptr, ptr %6, align 8, !tbaa !291
  %73 = getelementptr inbounds nuw %struct.quic_domain_st, ptr %72, i32 0, i32 1
  %74 = load ptr, ptr %73, align 8, !tbaa !159
  %75 = call i32 @ossl_quic_obj_init(ptr noundef %70, ptr noundef %71, i32 noundef 131, ptr noundef null, ptr noundef %74, ptr noundef null)
  %76 = icmp ne i32 %75, 0
  br i1 %76, label %78, label %77

77:                                               ; preds = %68
  br label %85

78:                                               ; preds = %68
  %79 = load ptr, ptr %6, align 8, !tbaa !291
  %80 = getelementptr inbounds nuw %struct.quic_domain_st, ptr %79, i32 0, i32 0
  %81 = load i64, ptr %8, align 8, !tbaa !169
  call void @ossl_quic_obj_set_domain_flags(ptr noundef %80, i64 noundef %81)
  %82 = load ptr, ptr %6, align 8, !tbaa !291
  %83 = getelementptr inbounds nuw %struct.quic_domain_st, ptr %82, i32 0, i32 0
  %84 = getelementptr inbounds nuw %struct.quic_obj_st, ptr %83, i32 0, i32 0
  store ptr %84, ptr %3, align 8
  store i32 1, ptr %9, align 4
  br label %92

85:                                               ; preds = %77, %66, %39
  %86 = load ptr, ptr %6, align 8, !tbaa !291
  %87 = getelementptr inbounds nuw %struct.quic_domain_st, ptr %86, i32 0, i32 1
  %88 = load ptr, ptr %87, align 8, !tbaa !159
  call void @ossl_quic_engine_free(ptr noundef %88)
  %89 = load ptr, ptr %6, align 8, !tbaa !291
  %90 = getelementptr inbounds nuw %struct.quic_domain_st, ptr %89, i32 0, i32 2
  call void @ossl_crypto_mutex_free(ptr noundef %90)
  %91 = load ptr, ptr %6, align 8, !tbaa !291
  call void @CRYPTO_free(ptr noundef %91, ptr noundef @.str, i32 noundef 4952)
  store ptr null, ptr %3, align 8
  store i32 1, ptr %9, align 4
  br label %92

92:                                               ; preds = %85, %78, %32, %28
  call void @llvm.lifetime.end.p0(i64 8, ptr %8) #10
  call void @llvm.lifetime.end.p0(i64 32, ptr %7) #10
  call void @llvm.lifetime.end.p0(i64 8, ptr %6) #10
  %93 = load ptr, ptr %3, align 8
  ret ptr %93
}