; Function Attrs: nounwind uwtable
define ptr @ossl_quic_new_domain(ptr noundef %0, i64 noundef %1) local_unnamed_addr #0 {
  %3 = alloca %struct.quic_engine_args_st, align 8
  %4 = alloca i64, align 8
  call void @llvm.lifetime.start.p0(i64 32, ptr nonnull %3) #12
  call void @llvm.memset.p0.i64(ptr noundef nonnull align 8 dereferenceable(32) %3, i8 0, i64 32, i1 false)
  call void @llvm.lifetime.start.p0(i64 8, ptr nonnull %4) #12
  %5 = getelementptr inbounds nuw i8, ptr %0, i64 1752
  %6 = load i64, ptr %5, align 8, !tbaa !87
  %7 = and i64 %1, 7
  %.not = icmp eq i64 %7, 0
  %8 = select i1 %.not, i64 %6, i64 0
  %spec.select = or i64 %8, %1
  store i64 %spec.select, ptr %4, align 8, !tbaa !160
  %9 = call i32 @ossl_adjust_domain_flags(i64 noundef %spec.select, ptr noundef nonnull %4) #12
  %.not20 = icmp eq i32 %9, 0
  br i1 %.not20, label %44, label %10

10:                                               ; preds = %2
  %11 = call noalias ptr @CRYPTO_zalloc(i64 noundef 136, ptr noundef nonnull @.str, i32 noundef 4913) #12
  %12 = icmp eq ptr %11, null
  br i1 %12, label %13, label %14

13:                                               ; preds = %10
  call void (ptr, ptr, i32, ptr, i32, ptr, ...) @quic_raise_non_normal_error(ptr noundef null, ptr nonnull poison, i32 noundef 4914, ptr noundef nonnull @__func__.ossl_quic_new_domain, i32 noundef 524303, ptr noundef null)
  br label %44

14:                                               ; preds = %10
  %15 = call ptr @ossl_crypto_mutex_new() #12
  %16 = getelementptr inbounds nuw i8, ptr %11, i64 128
  store ptr %15, ptr %16, align 8, !tbaa !227
  %17 = icmp eq ptr %15, null
  br i1 %17, label %18, label %19

18:                                               ; preds = %14
  call void (ptr, ptr, i32, ptr, i32, ptr, ...) @quic_raise_non_normal_error(ptr noundef null, ptr nonnull poison, i32 noundef 4920, ptr noundef nonnull @__func__.ossl_quic_new_domain, i32 noundef 524303, ptr noundef null)
  br label %41

19:                                               ; preds = %14
  %20 = load ptr, ptr %0, align 8, !tbaa !102
  store ptr %20, ptr %3, align 8, !tbaa !103
  %21 = getelementptr inbounds nuw i8, ptr %0, i64 1152
  %22 = load ptr, ptr %21, align 8, !tbaa !105
  %23 = getelementptr inbounds nuw i8, ptr %3, i64 8
  store ptr %22, ptr %23, align 8, !tbaa !106
  %24 = getelementptr inbounds nuw i8, ptr %3, i64 16
  store ptr %15, ptr %24, align 8, !tbaa !107
  %25 = load i64, ptr %4, align 8, !tbaa !160
  %26 = and i64 %25, 4
  %.not.i = icmp eq i64 %26, 0
  %27 = and i64 %25, 10
  %28 = icmp ne i64 %27, 10
  %narrow.i.not = and i1 %.not.i, %28
  br i1 %narrow.i.not, label %31, label %29

29:                                               ; preds = %19
  %30 = getelementptr inbounds nuw i8, ptr %3, i64 24
  store i64 1, ptr %30, align 8, !tbaa !108
  br label %31

31:                                               ; preds = %29, %19
  %32 = call ptr @ossl_quic_engine_new(ptr noundef nonnull %3) #12
  %33 = getelementptr inbounds nuw i8, ptr %11, i64 120
  store ptr %32, ptr %33, align 8, !tbaa !137
  %34 = icmp eq ptr %32, null
  br i1 %34, label %35, label %36

35:                                               ; preds = %31
  call void (ptr, ptr, i32, ptr, i32, ptr, ...) @quic_raise_non_normal_error(ptr noundef null, ptr nonnull poison, i32 noundef 4935, ptr noundef nonnull @__func__.ossl_quic_new_domain, i32 noundef 786691, ptr noundef null)
  br label %41

36:                                               ; preds = %31
  %37 = call i32 @ossl_quic_obj_init(ptr noundef nonnull %11, ptr noundef nonnull %0, i32 noundef 131, ptr noundef null, ptr noundef nonnull %32, ptr noundef null) #12
  %.not22 = icmp eq i32 %37, 0
  br i1 %.not22, label %41, label %38

38:                                               ; preds = %36
  %39 = load i64, ptr %4, align 8, !tbaa !160
  %40 = getelementptr inbounds nuw i8, ptr %11, i64 104
  store i64 %39, ptr %40, align 8, !tbaa !200
  br label %44

41:                                               ; preds = %36, %35, %18
  %42 = getelementptr inbounds nuw i8, ptr %11, i64 120
  %43 = load ptr, ptr %42, align 8, !tbaa !137
  call void @ossl_quic_engine_free(ptr noundef %43) #12
  call void @ossl_crypto_mutex_free(ptr noundef nonnull %16) #12
  call void @CRYPTO_free(ptr noundef nonnull %11, ptr noundef nonnull @.str, i32 noundef 4952) #12
  br label %44

44:                                               ; preds = %2, %41, %38, %13
  %.0 = phi ptr [ null, %13 ], [ null, %41 ], [ %11, %38 ], [ null, %2 ]
  call void @llvm.lifetime.end.p0(i64 8, ptr nonnull %4) #12
  call void @llvm.lifetime.end.p0(i64 32, ptr nonnull %3) #12
  ret ptr %.0
}